target datalayout = "e-m:e-p270:32:32-p271:32:32-p272:64:64-i64:64-i128:128-f80:128-n8:16:32:64-S128"
target triple = "x86_64-pc-linux-gnu"

%"class.pxrInternal_v0_24__pxrReserved__::TfRefPtr" = type { ptr }
%"class.pxrInternal_v0_24__pxrReserved__::TfRefBase" = type <{ ptr, %"struct.std::atomic", [4 x i8] }>
%"struct.std::atomic" = type { %"struct.std::__atomic_base" }
%"struct.std::__atomic_base" = type { i32 }

; Function Attrs: mustprogress nounwind uwtable
define linkonce_odr noundef i32 @_ZStorSt12memory_orderSt23__memory_order_modifier(i32 noundef %0, i32 noundef %1) #2 comdat {
  %3 = alloca i32, align 4
  %4 = alloca i32, align 4
  store i32 %0, ptr %3, align 4
  store i32 %1, ptr %4, align 4
  %5 = load i32, ptr %3, align 4
  %6 = load i32, ptr %4, align 4
  %7 = or i32 %5, %6
  ret i32 %7
}

; Function Attrs: mustprogress nounwind uwtable
define linkonce_odr noundef i32 @_ZSt24__cmpexch_failure_order2St12memory_order(i32 noundef %0) #2 comdat {
  %2 = alloca i32, align 4
  store i32 %0, ptr %2, align 4
  %3 = load i32, ptr %2, align 4
  %4 = icmp eq i32 %3, 4
  br i1 %4, label %5, label %6

5:                                                ; preds = %1
  br label %14

6:                                                ; preds = %1
  %7 = load i32, ptr %2, align 4
  %8 = icmp eq i32 %7, 3
  br i1 %8, label %9, label %10

9:                                                ; preds = %6
  br label %12

10:                                               ; preds = %6
  %11 = load i32, ptr %2, align 4
  br label %12

12:                                               ; preds = %10, %9
  %13 = phi i32 [ 0, %9 ], [ %11, %10 ]
  br label %14

14:                                               ; preds = %12, %5
  %15 = phi i32 [ 2, %5 ], [ %13, %12 ]
  ret i32 %15
}

; Function Attrs: mustprogress nounwind uwtable
define linkonce_odr noundef i32 @_ZSt23__cmpexch_failure_orderSt12memory_order(i32 noundef %0) #2 comdat personality ptr @__gxx_personality_v0 {
  %2 = alloca i32, align 4
  store i32 %0, ptr %2, align 4
  %3 = load i32, ptr %2, align 4
  %4 = call noundef i32 @_ZStanSt12memory_orderSt23__memory_order_modifier(i32 noundef %3, i32 noundef 65535)
  %5 = call noundef i32 @_ZSt24__cmpexch_failure_order2St12memory_order(i32 noundef %4) #5
  %6 = load i32, ptr %2, align 4
  %7 = call noundef i32 @_ZStanSt12memory_orderSt23__memory_order_modifier(i32 noundef %6, i32 noundef -65536)
  %8 = invoke noundef i32 @_ZStorSt12memory_orderSt23__memory_order_modifier(i32 noundef %5, i32 noundef %7)
          to label %9 unwind label %10

9:                                                ; preds = %1
  ret i32 %8

10:                                               ; preds = %1
  %11 = landingpad { ptr, i32 }
          catch ptr null
  %12 = extractvalue { ptr, i32 } %11, 0
  call void @__clang_call_terminate(ptr %12) #9
  unreachable
}

; Function Attrs: noreturn nounwind uwtable
define linkonce_odr hidden void @__clang_call_terminate(ptr noundef %0) #7 comdat {
  %2 = call ptr @__cxa_begin_catch(ptr %0) #5
  call void @_ZSt9terminatev() #9
  unreachable
}

; Function Attrs: mustprogress nounwind uwtable
define linkonce_odr noundef i32 @_ZStanSt12memory_orderSt23__memory_order_modifier(i32 noundef %0, i32 noundef %1) #2 comdat {
  %3 = alloca i32, align 4
  %4 = alloca i32, align 4
  store i32 %0, ptr %3, align 4
  store i32 %1, ptr %4, align 4
  %5 = load i32, ptr %3, align 4
  %6 = load i32, ptr %4, align 4
  %7 = and i32 %5, %6
  ret i32 %7
}

; Function Attrs: mustprogress nounwind uwtable
define linkonce_odr noundef nonnull align 4 dereferenceable(4) ptr @_ZNK32pxrInternal_v0_24__pxrReserved__9TfRefBase12_GetRefCountEv(ptr noundef nonnull align 8 dereferenceable(12) %0) #2 comdat align 2 {
  %2 = alloca ptr, align 8
  store ptr %0, ptr %2, align 8
  %3 = load ptr, ptr %2, align 8
  %4 = getelementptr inbounds nuw %"class.pxrInternal_v0_24__pxrReserved__::TfRefBase", ptr %3, i32 0, i32 1
  ret ptr %4
}

; Function Attrs: mustprogress uwtable
define linkonce_odr void @_ZN32pxrInternal_v0_24__pxrReserved__30Tf_RefPtr_UniqueChangedCounter6AddRefEPKNS_9TfRefBaseE(ptr noundef %0) #0 comdat align 2 personality ptr @__gxx_personality_v0 {
  %2 = alloca ptr, align 8
  %3 = alloca ptr, align 8
  %4 = alloca i32, align 4
  %5 = alloca i32, align 4
  %6 = alloca i32, align 4
  %7 = alloca i32, align 4
  %8 = alloca i8, align 1
  %9 = alloca ptr, align 8
  %10 = alloca i32, align 4
  %11 = alloca i32, align 4
  %12 = alloca i32, align 4
  %13 = alloca i32, align 4
  %14 = alloca ptr, align 8
  %15 = alloca ptr, align 8
  %16 = alloca i32, align 4
  %17 = alloca i32, align 4
  %18 = alloca ptr, align 8
  %19 = alloca i32, align 4
  %20 = alloca i32, align 4
  %21 = alloca i32, align 4
  %22 = alloca ptr, align 8
  %23 = alloca i32, align 4
  %24 = alloca ptr, align 8
  %25 = alloca i32, align 4
  store ptr %0, ptr %22, align 8
  %26 = load ptr, ptr %22, align 8
  %27 = icmp ne ptr %26, null
  %28 = xor i1 %27, true
  br i1 %28, label %29, label %30

29:                                               ; preds = %1
  br label %243

30:                                               ; preds = %1
  store i32 0, ptr %23, align 4
  %31 = load ptr, ptr %22, align 8
  %32 = call noundef nonnull align 4 dereferenceable(4) ptr @_ZNK32pxrInternal_v0_24__pxrReserved__9TfRefBase12_GetRefCountEv(ptr noundef nonnull align 8 dereferenceable(12) %31)
  store ptr %32, ptr %24, align 8
  %33 = load ptr, ptr %24, align 8
  store ptr %33, ptr %18, align 8
  store i32 0, ptr %19, align 4
  %34 = load ptr, ptr %18, align 8
  %35 = load i32, ptr %19, align 4
  %36 = invoke noundef i32 @_ZStanSt12memory_orderSt23__memory_order_modifier(i32 noundef %35, i32 noundef 65535)
          to label %37 unwind label %45

37:                                               ; preds = %30
  store i32 %36, ptr %20, align 4
  %38 = load i32, ptr %19, align 4
  switch i32 %38, label %39 [
    i32 1, label %41
    i32 2, label %41
    i32 5, label %43
  ]

39:                                               ; preds = %37
  %40 = load atomic i32, ptr %34 monotonic, align 4
  store i32 %40, ptr %21, align 4
  br label %48

41:                                               ; preds = %37, %37
  %42 = load atomic i32, ptr %34 acquire, align 4
  store i32 %42, ptr %21, align 4
  br label %48

43:                                               ; preds = %37
  %44 = load atomic i32, ptr %34 seq_cst, align 4
  store i32 %44, ptr %21, align 4
  br label %48

45:                                               ; preds = %30
  %46 = landingpad { ptr, i32 }
          catch ptr null
  %47 = extractvalue { ptr, i32 } %46, 0
  call void @__clang_call_terminate(ptr %47) #9
  unreachable

48:                                               ; preds = %43, %41, %39
  %49 = load i32, ptr %21, align 4
  store i32 %49, ptr %25, align 4
  %50 = load i32, ptr %25, align 4
  %51 = icmp slt i32 %50, 0
  br i1 %51, label %52, label %222

52:                                               ; preds = %48
  %53 = load i32, ptr %25, align 4
  %54 = icmp ne i32 %53, -1
  br i1 %54, label %55, label %219

55:                                               ; preds = %52
  %56 = load ptr, ptr %24, align 8
  %57 = load i32, ptr %25, align 4
  %58 = sub nsw i32 %57, 1
  store ptr %56, ptr %14, align 8
  store ptr %25, ptr %15, align 8
  store i32 %58, ptr %16, align 4
  store i32 0, ptr %17, align 4
  %59 = load ptr, ptr %14, align 8
  %60 = load ptr, ptr %15, align 8
  %61 = load i32, ptr %16, align 4
  %62 = load i32, ptr %17, align 4
  %63 = load i32, ptr %17, align 4
  %64 = call noundef i32 @_ZSt23__cmpexch_failure_orderSt12memory_order(i32 noundef %63) #5
  store ptr %59, ptr %2, align 8
  store ptr %60, ptr %3, align 8
  store i32 %61, ptr %4, align 4
  store i32 %62, ptr %5, align 4
  store i32 %64, ptr %6, align 4
  %65 = load ptr, ptr %2, align 8
  %66 = load i32, ptr %5, align 4
  %67 = load ptr, ptr %3, align 8
  %68 = load i32, ptr %4, align 4
  store i32 %68, ptr %7, align 4
  %69 = load i32, ptr %6, align 4
  switch i32 %66, label %70 [
    i32 1, label %71
    i32 2, label %71
    i32 3, label %72
    i32 4, label %73
    i32 5, label %74
  ]

70:                                               ; preds = %55
  switch i32 %69, label %75 [
    i32 1, label %81
    i32 2, label %81
    i32 5, label %87
  ]

71:                                               ; preds = %55, %55
  switch i32 %69, label %103 [
    i32 1, label %109
    i32 2, label %109
    i32 5, label %115
  ]

72:                                               ; preds = %55
  switch i32 %69, label %131 [
    i32 1, label %137
    i32 2, label %137
    i32 5, label %143
  ]

73:                                               ; preds = %55
  switch i32 %69, label %159 [
    i32 1, label %165
    i32 2, label %165
    i32 5, label %171
  ]

74:                                               ; preds = %55
  switch i32 %69, label %187 [
    i32 1, label %193
    i32 2, label %193
    i32 5, label %199
  ]

75:                                               ; preds = %70
  %76 = load i32, ptr %67, align 4
  %77 = load i32, ptr %7, align 4
  %78 = cmpxchg weak ptr %65, i32 %76, i32 %77 monotonic monotonic, align 4
  %79 = extractvalue { i32, i1 } %78, 0
  %80 = extractvalue { i32, i1 } %78, 1
  br i1 %80, label %95, label %94

81:                                               ; preds = %70, %70
  %82 = load i32, ptr %67, align 4
  %83 = load i32, ptr %7, align 4
  %84 = cmpxchg weak ptr %65, i32 %82, i32 %83 monotonic acquire, align 4
  %85 = extractvalue { i32, i1 } %84, 0
  %86 = extractvalue { i32, i1 } %84, 1
  br i1 %86, label %98, label %97

87:                                               ; preds = %70
  %88 = load i32, ptr %67, align 4
  %89 = load i32, ptr %7, align 4
  %90 = cmpxchg weak ptr %65, i32 %88, i32 %89 monotonic seq_cst, align 4
  %91 = extractvalue { i32, i1 } %90, 0
  %92 = extractvalue { i32, i1 } %90, 1
  br i1 %92, label %101, label %100

93:                                               ; preds = %101, %98, %95
  br label %215

94:                                               ; preds = %75
  store i32 %79, ptr %67, align 4
  br label %95

95:                                               ; preds = %94, %75
  %96 = zext i1 %80 to i8
  store i8 %96, ptr %8, align 1
  br label %93

97:                                               ; preds = %81
  store i32 %85, ptr %67, align 4
  br label %98

98:                                               ; preds = %97, %81
  %99 = zext i1 %86 to i8
  store i8 %99, ptr %8, align 1
  br label %93

100:                                              ; preds = %87
  store i32 %91, ptr %67, align 4
  br label %101

101:                                              ; preds = %100, %87
  %102 = zext i1 %92 to i8
  store i8 %102, ptr %8, align 1
  br label %93

103:                                              ; preds = %71
  %104 = load i32, ptr %67, align 4
  %105 = load i32, ptr %7, align 4
  %106 = cmpxchg weak ptr %65, i32 %104, i32 %105 acquire monotonic, align 4
  %107 = extractvalue { i32, i1 } %106, 0
  %108 = extractvalue { i32, i1 } %106, 1
  br i1 %108, label %123, label %122

109:                                              ; preds = %71, %71
  %110 = load i32, ptr %67, align 4
  %111 = load i32, ptr %7, align 4
  %112 = cmpxchg weak ptr %65, i32 %110, i32 %111 acquire acquire, align 4
  %113 = extractvalue { i32, i1 } %112, 0
  %114 = extractvalue { i32, i1 } %112, 1
  br i1 %114, label %126, label %125

115:                                              ; preds = %71
  %116 = load i32, ptr %67, align 4
  %117 = load i32, ptr %7, align 4
  %118 = cmpxchg weak ptr %65, i32 %116, i32 %117 acquire seq_cst, align 4
  %119 = extractvalue { i32, i1 } %118, 0
  %120 = extractvalue { i32, i1 } %118, 1
  br i1 %120, label %129, label %128

121:                                              ; preds = %129, %126, %123
  br label %215

122:                                              ; preds = %103
  store i32 %107, ptr %67, align 4
  br label %123

123:                                              ; preds = %122, %103
  %124 = zext i1 %108 to i8
  store i8 %124, ptr %8, align 1
  br label %121

125:                                              ; preds = %109
  store i32 %113, ptr %67, align 4
  br label %126

126:                                              ; preds = %125, %109
  %127 = zext i1 %114 to i8
  store i8 %127, ptr %8, align 1
  br label %121

128:                                              ; preds = %115
  store i32 %119, ptr %67, align 4
  br label %129

129:                                              ; preds = %128, %115
  %130 = zext i1 %120 to i8
  store i8 %130, ptr %8, align 1
  br label %121

131:                                              ; preds = %72
  %132 = load i32, ptr %67, align 4
  %133 = load i32, ptr %7, align 4
  %134 = cmpxchg weak ptr %65, i32 %132, i32 %133 release monotonic, align 4
  %135 = extractvalue { i32, i1 } %134, 0
  %136 = extractvalue { i32, i1 } %134, 1
  br i1 %136, label %151, label %150

137:                                              ; preds = %72, %72
  %138 = load i32, ptr %67, align 4
  %139 = load i32, ptr %7, align 4
  %140 = cmpxchg weak ptr %65, i32 %138, i32 %139 release acquire, align 4
  %141 = extractvalue { i32, i1 } %140, 0
  %142 = extractvalue { i32, i1 } %140, 1
  br i1 %142, label %154, label %153

143:                                              ; preds = %72
  %144 = load i32, ptr %67, align 4
  %145 = load i32, ptr %7, align 4
  %146 = cmpxchg weak ptr %65, i32 %144, i32 %145 release seq_cst, align 4
  %147 = extractvalue { i32, i1 } %146, 0
  %148 = extractvalue { i32, i1 } %146, 1
  br i1 %148, label %157, label %156

149:                                              ; preds = %157, %154, %151
  br label %215

150:                                              ; preds = %131
  store i32 %135, ptr %67, align 4
  br label %151

151:                                              ; preds = %150, %131
  %152 = zext i1 %136 to i8
  store i8 %152, ptr %8, align 1
  br label %149

153:                                              ; preds = %137
  store i32 %141, ptr %67, align 4
  br label %154

154:                                              ; preds = %153, %137
  %155 = zext i1 %142 to i8
  store i8 %155, ptr %8, align 1
  br label %149

156:                                              ; preds = %143
  store i32 %147, ptr %67, align 4
  br label %157

157:                                              ; preds = %156, %143
  %158 = zext i1 %148 to i8
  store i8 %158, ptr %8, align 1
  br label %149

159:                                              ; preds = %73
  %160 = load i32, ptr %67, align 4
  %161 = load i32, ptr %7, align 4
  %162 = cmpxchg weak ptr %65, i32 %160, i32 %161 acq_rel monotonic, align 4
  %163 = extractvalue { i32, i1 } %162, 0
  %164 = extractvalue { i32, i1 } %162, 1
  br i1 %164, label %179, label %178

165:                                              ; preds = %73, %73
  %166 = load i32, ptr %67, align 4
  %167 = load i32, ptr %7, align 4
  %168 = cmpxchg weak ptr %65, i32 %166, i32 %167 acq_rel acquire, align 4
  %169 = extractvalue { i32, i1 } %168, 0
  %170 = extractvalue { i32, i1 } %168, 1
  br i1 %170, label %182, label %181

171:                                              ; preds = %73
  %172 = load i32, ptr %67, align 4
  %173 = load i32, ptr %7, align 4
  %174 = cmpxchg weak ptr %65, i32 %172, i32 %173 acq_rel seq_cst, align 4
  %175 = extractvalue { i32, i1 } %174, 0
  %176 = extractvalue { i32, i1 } %174, 1
  br i1 %176, label %185, label %184

177:                                              ; preds = %185, %182, %179
  br label %215

178:                                              ; preds = %159
  store i32 %163, ptr %67, align 4
  br label %179

179:                                              ; preds = %178, %159
  %180 = zext i1 %164 to i8
  store i8 %180, ptr %8, align 1
  br label %177

181:                                              ; preds = %165
  store i32 %169, ptr %67, align 4
  br label %182

182:                                              ; preds = %181, %165
  %183 = zext i1 %170 to i8
  store i8 %183, ptr %8, align 1
  br label %177

184:                                              ; preds = %171
  store i32 %175, ptr %67, align 4
  br label %185

185:                                              ; preds = %184, %171
  %186 = zext i1 %176 to i8
  store i8 %186, ptr %8, align 1
  br label %177

187:                                              ; preds = %74
  %188 = load i32, ptr %67, align 4
  %189 = load i32, ptr %7, align 4
  %190 = cmpxchg weak ptr %65, i32 %188, i32 %189 seq_cst monotonic, align 4
  %191 = extractvalue { i32, i1 } %190, 0
  %192 = extractvalue { i32, i1 } %190, 1
  br i1 %192, label %207, label %206

193:                                              ; preds = %74, %74
  %194 = load i32, ptr %67, align 4
  %195 = load i32, ptr %7, align 4
  %196 = cmpxchg weak ptr %65, i32 %194, i32 %195 seq_cst acquire, align 4
  %197 = extractvalue { i32, i1 } %196, 0
  %198 = extractvalue { i32, i1 } %196, 1
  br i1 %198, label %210, label %209

199:                                              ; preds = %74
  %200 = load i32, ptr %67, align 4
  %201 = load i32, ptr %7, align 4
  %202 = cmpxchg weak ptr %65, i32 %200, i32 %201 seq_cst seq_cst, align 4
  %203 = extractvalue { i32, i1 } %202, 0
  %204 = extractvalue { i32, i1 } %202, 1
  br i1 %204, label %213, label %212

205:                                              ; preds = %213, %210, %207
  br label %215

206:                                              ; preds = %187
  store i32 %191, ptr %67, align 4
  br label %207

207:                                              ; preds = %206, %187
  %208 = zext i1 %192 to i8
  store i8 %208, ptr %8, align 1
  br label %205

209:                                              ; preds = %193
  store i32 %197, ptr %67, align 4
  br label %210

210:                                              ; preds = %209, %193
  %211 = zext i1 %198 to i8
  store i8 %211, ptr %8, align 1
  br label %205

212:                                              ; preds = %199
  store i32 %203, ptr %67, align 4
  br label %213

213:                                              ; preds = %212, %199
  %214 = zext i1 %204 to i8
  store i8 %214, ptr %8, align 1
  br label %205

215:                                              ; preds = %205, %177, %149, %121, %93
  %216 = load i8, ptr %8, align 1
  %217 = trunc i8 %216 to i1
  br i1 %217, label %218, label %219

218:                                              ; preds = %215
  br label %243

219:                                              ; preds = %215, %52
  %220 = load ptr, ptr %22, align 8
  %221 = load i32, ptr %25, align 4
  call void @_ZN32pxrInternal_v0_24__pxrReserved__30Tf_RefPtr_UniqueChangedCounter18_AddRefMaybeLockedEPKNS_9TfRefBaseEi(ptr noundef %220, i32 noundef %221)
  br label %243

222:                                              ; preds = %48
  %223 = load ptr, ptr %24, align 8
  store ptr %223, ptr %9, align 8
  store i32 1, ptr %10, align 4
  store i32 0, ptr %11, align 4
  %224 = load ptr, ptr %9, align 8
  %225 = load i32, ptr %11, align 4
  %226 = load i32, ptr %10, align 4
  store i32 %226, ptr %12, align 4
  switch i32 %225, label %227 [
    i32 1, label %230
    i32 2, label %230
    i32 3, label %233
    i32 4, label %236
    i32 5, label %239
  ]

227:                                              ; preds = %222
  %228 = load i32, ptr %12, align 4
  %229 = atomicrmw add ptr %224, i32 %228 monotonic, align 4
  store i32 %229, ptr %13, align 4
  br label %242

230:                                              ; preds = %222, %222
  %231 = load i32, ptr %12, align 4
  %232 = atomicrmw add ptr %224, i32 %231 acquire, align 4
  store i32 %232, ptr %13, align 4
  br label %242

233:                                              ; preds = %222
  %234 = load i32, ptr %12, align 4
  %235 = atomicrmw add ptr %224, i32 %234 release, align 4
  store i32 %235, ptr %13, align 4
  br label %242

236:                                              ; preds = %222
  %237 = load i32, ptr %12, align 4
  %238 = atomicrmw add ptr %224, i32 %237 acq_rel, align 4
  store i32 %238, ptr %13, align 4
  br label %242

239:                                              ; preds = %222
  %240 = load i32, ptr %12, align 4
  %241 = atomicrmw add ptr %224, i32 %240 seq_cst, align 4
  store i32 %241, ptr %13, align 4
  br label %242

242:                                              ; preds = %239, %236, %233, %230, %227
  br label %243

243:                                              ; preds = %242, %219, %218, %29
  ret void
}

; Function Attrs: mustprogress nounwind uwtable
define linkonce_odr void @_ZN32pxrInternal_v0_24__pxrReserved__20Tf_RefPtrTracker_NewEPKvS1_(ptr noundef %0, ptr noundef %1) #2 comdat {
  %3 = alloca ptr, align 8
  %4 = alloca ptr, align 8
  store ptr %0, ptr %3, align 8
  store ptr %1, ptr %4, align 8
  ret void
}

; Function Attrs: mustprogress nounwind uwtable
define linkonce_odr noundef ptr @_ZNK32pxrInternal_v0_24__pxrReserved__8TfRefPtrINS_16HdSceneIndexBaseEE21_GetObjectForTrackingEv(ptr noundef nonnull align 8 dereferenceable(8) %0) #2 comdat align 2 {
  %2 = alloca ptr, align 8
  store ptr %0, ptr %2, align 8
  %3 = load ptr, ptr %2, align 8
  %4 = getelementptr inbounds nuw %"class.pxrInternal_v0_24__pxrReserved__::TfRefPtr", ptr %3, i32 0, i32 0
  %5 = load ptr, ptr %4, align 8
  ret ptr %5
}

; Function Attrs: mustprogress uwtable
define linkonce_odr void @_ZNK32pxrInternal_v0_24__pxrReserved__8TfRefPtrINS_16HdSceneIndexBaseEE7_AddRefEv(ptr noundef nonnull align 8 dereferenceable(8) %0) #0 comdat align 2 {
  %2 = alloca ptr, align 8
  store ptr %0, ptr %2, align 8
  %3 = load ptr, ptr %2, align 8
  %4 = getelementptr inbounds nuw %"class.pxrInternal_v0_24__pxrReserved__::TfRefPtr", ptr %3, i32 0, i32 0
  %5 = load ptr, ptr %4, align 8
  call void @_ZN32pxrInternal_v0_24__pxrReserved__30Tf_RefPtr_UniqueChangedCounter6AddRefEPKNS_9TfRefBaseE(ptr noundef %5)
  ret void
}

; Function Attrs: mustprogress uwtable
define linkonce_odr void @_ZN32pxrInternal_v0_24__pxrReserved__8TfRefPtrINS_16HdSceneIndexBaseEEC2ERKS2_(ptr noundef nonnull align 8 dereferenceable(8) %0, ptr noundef nonnull align 8 dereferenceable(8) %1) unnamed_addr #0 comdat align 2 {
  %3 = alloca ptr, align 8
  %4 = alloca ptr, align 8
  store ptr %0, ptr %3, align 8
  store ptr %1, ptr %4, align 8
  %5 = load ptr, ptr %3, align 8
  %6 = getelementptr inbounds nuw %"class.pxrInternal_v0_24__pxrReserved__::TfRefPtr", ptr %5, i32 0, i32 0
  %7 = load ptr, ptr %4, align 8
  %8 = getelementptr inbounds nuw %"class.pxrInternal_v0_24__pxrReserved__::TfRefPtr", ptr %7, i32 0, i32 0
  %9 = load ptr, ptr %8, align 8
  store ptr %9, ptr %6, align 8
  call void @_ZNK32pxrInternal_v0_24__pxrReserved__8TfRefPtrINS_16HdSceneIndexBaseEE7_AddRefEv(ptr noundef nonnull align 8 dereferenceable(8) %5)
  %10 = call noundef ptr @_ZNK32pxrInternal_v0_24__pxrReserved__8TfRefPtrINS_16HdSceneIndexBaseEE21_GetObjectForTrackingEv(ptr noundef nonnull align 8 dereferenceable(8) %5)
  call void @_ZN32pxrInternal_v0_24__pxrReserved__20Tf_RefPtrTracker_NewEPKvS1_(ptr noundef %5, ptr noundef %10)
  ret void
}

; Function Attrs: mustprogress uwtable
define void @_ZN32pxrInternal_v0_24__pxrReserved__18HdSceneIndexPlugin17_AppendSceneIndexERKNS_8TfRefPtrINS_16HdSceneIndexBaseEEERKSt10shared_ptrINS_21HdContainerDataSourceEE(ptr dead_on_unwind noalias writable sret(%"class.pxrInternal_v0_24__pxrReserved__::TfRefPtr") align 8 %0, ptr noundef nonnull align 8 dereferenceable(8) %1, ptr noundef nonnull align 8 dereferenceable(8) %2, ptr noundef nonnull align 8 dereferenceable(16) %3) unnamed_addr #0 align 2 {
  %5 = alloca ptr, align 8
  %6 = alloca ptr, align 8
  %7 = alloca ptr, align 8
  %8 = alloca ptr, align 8
  store ptr %0, ptr %5, align 8
  store ptr %1, ptr %6, align 8
  store ptr %2, ptr %7, align 8
  store ptr %3, ptr %8, align 8
  %9 = load ptr, ptr %7, align 8
  call void @_ZN32pxrInternal_v0_24__pxrReserved__8TfRefPtrINS_16HdSceneIndexBaseEEC2ERKS2_(ptr noundef nonnull align 8 dereferenceable(8) %0, ptr noundef nonnull align 8 dereferenceable(8) %9)
  ret void
}