; Function Attrs: mustprogress uwtable
define void @_ZN32pxrInternal_v0_24__pxrReserved__18HdSceneIndexPlugin17_AppendSceneIndexERKNS_8TfRefPtrINS_16HdSceneIndexBaseEEERKSt10shared_ptrINS_21HdContainerDataSourceEE(ptr dead_on_unwind noalias writable writeonly sret(%"class.pxrInternal_v0_24__pxrReserved__::TfRefPtr") align 8 captures(none) initializes((0, 8)) %0, ptr nonnull readnone align 8 captures(none) %1, ptr noundef nonnull readonly align 8 captures(none) dereferenceable(8) %2, ptr nonnull readnone align 8 captures(none) %3) unnamed_addr #0 align 2 personality ptr @__gxx_personality_v0 {
  %5 = load ptr, ptr %2, align 8
  store ptr %5, ptr %0, align 8
  %.not.i.i.i = icmp eq ptr %5, null
  br i1 %.not.i.i.i, label %_ZN32pxrInternal_v0_24__pxrReserved__8TfRefPtrINS_16HdSceneIndexBaseEEC2ERKS2_.exit, label %6

6:                                                ; preds = %4
  %7 = getelementptr inbounds nuw i8, ptr %5, i64 8
  %8 = load atomic i32, ptr %7 monotonic, align 4
  %9 = icmp slt i32 %8, 0
  br i1 %9, label %10, label %17

10:                                               ; preds = %6
  %.not63.i.i.i = icmp eq i32 %8, -1
  br i1 %.not63.i.i.i, label %16, label %11

11:                                               ; preds = %10
  %12 = add nsw i32 %8, -1
  %13 = cmpxchg weak ptr %7, i32 %8, i32 %12 monotonic monotonic, align 4
  %14 = extractvalue { i32, i1 } %13, 1
  %15 = extractvalue { i32, i1 } %13, 0
  br i1 %14, label %_ZN32pxrInternal_v0_24__pxrReserved__8TfRefPtrINS_16HdSceneIndexBaseEEC2ERKS2_.exit, label %16

16:                                               ; preds = %11, %10
  %.062.i.i.i = phi i32 [ %15, %11 ], [ -1, %10 ]
  tail call void @_ZN32pxrInternal_v0_24__pxrReserved__30Tf_RefPtr_UniqueChangedCounter18_AddRefMaybeLockedEPKNS_9TfRefBaseEi(ptr noundef nonnull %5, i32 noundef %.062.i.i.i)
  br label %_ZN32pxrInternal_v0_24__pxrReserved__8TfRefPtrINS_16HdSceneIndexBaseEEC2ERKS2_.exit

17:                                               ; preds = %6
  %18 = atomicrmw add ptr %7, i32 1 monotonic, align 4
  br label %_ZN32pxrInternal_v0_24__pxrReserved__8TfRefPtrINS_16HdSceneIndexBaseEEC2ERKS2_.exit

_ZN32pxrInternal_v0_24__pxrReserved__8TfRefPtrINS_16HdSceneIndexBaseEEC2ERKS2_.exit: ; preds = %4, %11, %16, %17
  ret void
}